target datalayout = "e-m:e-p270:32:32-p271:32:32-p272:64:64-i64:64-i128:128-f80:128-n8:16:32:64-S128"
target triple = "x86_64-pc-linux-gnu"

%struct.Vec_Int_t_ = type { i32, i32, ptr }
%struct.Aig_Man_t_ = type { ptr, ptr, ptr, ptr, ptr, ptr, ptr, %struct.Aig_Obj_t_, i32, i32, i32, i32, i32, i32, [7 x i32], i32, ptr, i32, ptr, i32, ptr, i32, i32, i32, ptr, i32, i32, i32, i32, i32, ptr, ptr, i32, ptr, ptr, i32, ptr, ptr, i32, i32, i32, ptr, ptr, ptr, ptr, ptr, ptr, ptr, ptr, ptr, ptr, ptr, ptr, ptr, ptr, i32, ptr, ptr, ptr, ptr, i32, i64, i64, i64, ptr, ptr }
%struct.Aig_Obj_t_ = type { %union.anon, ptr, ptr, i64, i32, i32, %union.anon.0 }
%union.anon = type { ptr }
%union.anon.0 = type { ptr }
%struct.Cnf_Dat_t_ = type { ptr, i32, i32, i32, ptr, ptr, ptr, ptr, ptr, ptr }
%struct.Vec_Ptr_t_ = type { i32, i32, ptr }

; Function Attrs: inlinehint nounwind uwtable
define internal i32 @Vec_PtrSize(ptr noundef %0) #5 {
  %2 = alloca ptr, align 8
  store ptr %0, ptr %2, align 8, !tbaa !50
  %3 = load ptr, ptr %2, align 8, !tbaa !50
  %4 = getelementptr inbounds nuw %struct.Vec_Ptr_t_, ptr %3, i32 0, i32 1
  %5 = load i32, ptr %4, align 4, !tbaa !51
  ret i32 %5
}

; Function Attrs: inlinehint nounwind uwtable
define internal i32 @Vec_IntEntry(ptr noundef %0, i32 noundef %1) #5 {
  %3 = alloca ptr, align 8
  %4 = alloca i32, align 4
  store ptr %0, ptr %3, align 8, !tbaa !24
  store i32 %1, ptr %4, align 4, !tbaa !20
  %5 = load ptr, ptr %3, align 8, !tbaa !24
  %6 = getelementptr inbounds nuw %struct.Vec_Int_t_, ptr %5, i32 0, i32 2
  %7 = load ptr, ptr %6, align 8, !tbaa !28
  %8 = load i32, ptr %4, align 4, !tbaa !20
  %9 = sext i32 %8 to i64
  %10 = getelementptr inbounds i32, ptr %7, i64 %9
  %11 = load i32, ptr %10, align 4, !tbaa !20
  ret i32 %11
}

; Function Attrs: inlinehint nounwind uwtable
define internal i32 @Aig_ManObjNumMax(ptr noundef %0) #5 {
  %2 = alloca ptr, align 8
  store ptr %0, ptr %2, align 8, !tbaa !34
  %3 = load ptr, ptr %2, align 8, !tbaa !34
  %4 = getelementptr inbounds nuw %struct.Aig_Man_t_, ptr %3, i32 0, i32 4
  %5 = load ptr, ptr %4, align 8, !tbaa !60
  %6 = call i32 @Vec_PtrSize(ptr noundef %5)
  ret i32 %6
}

; Function Attrs: nounwind uwtable
define ptr @Cnf_DataAlloc(ptr noundef %0, i32 noundef %1, i32 noundef %2, i32 noundef %3) #0 {
  %5 = alloca ptr, align 8
  %6 = alloca i32, align 4
  %7 = alloca i32, align 4
  %8 = alloca i32, align 4
  %9 = alloca ptr, align 8
  store ptr %0, ptr %5, align 8, !tbaa !34
  store i32 %1, ptr %6, align 4, !tbaa !20
  store i32 %2, ptr %7, align 4, !tbaa !20
  store i32 %3, ptr %8, align 4, !tbaa !20
  call void @llvm.lifetime.start.p0(i64 8, ptr %9) #11
  %10 = call noalias ptr @calloc(i64 noundef 1, i64 noundef 72) #13
  store ptr %10, ptr %9, align 8, !tbaa !32
  %11 = load ptr, ptr %5, align 8, !tbaa !34
  %12 = load ptr, ptr %9, align 8, !tbaa !32
  %13 = getelementptr inbounds nuw %struct.Cnf_Dat_t_, ptr %12, i32 0, i32 0
  store ptr %11, ptr %13, align 8, !tbaa !55
  %14 = load i32, ptr %6, align 4, !tbaa !20
  %15 = load ptr, ptr %9, align 8, !tbaa !32
  %16 = getelementptr inbounds nuw %struct.Cnf_Dat_t_, ptr %15, i32 0, i32 1
  store i32 %14, ptr %16, align 8, !tbaa !56
  %17 = load i32, ptr %7, align 4, !tbaa !20
  %18 = load ptr, ptr %9, align 8, !tbaa !32
  %19 = getelementptr inbounds nuw %struct.Cnf_Dat_t_, ptr %18, i32 0, i32 3
  store i32 %17, ptr %19, align 8, !tbaa !57
  %20 = load i32, ptr %8, align 4, !tbaa !20
  %21 = load ptr, ptr %9, align 8, !tbaa !32
  %22 = getelementptr inbounds nuw %struct.Cnf_Dat_t_, ptr %21, i32 0, i32 2
  store i32 %20, ptr %22, align 4, !tbaa !58
  %23 = load i32, ptr %7, align 4, !tbaa !20
  %24 = add nsw i32 %23, 1
  %25 = sext i32 %24 to i64
  %26 = mul i64 8, %25
  %27 = call noalias ptr @malloc(i64 noundef %26) #12
  %28 = load ptr, ptr %9, align 8, !tbaa !32
  %29 = getelementptr inbounds nuw %struct.Cnf_Dat_t_, ptr %28, i32 0, i32 4
  store ptr %27, ptr %29, align 8, !tbaa !59
  %30 = load i32, ptr %8, align 4, !tbaa !20
  %31 = sext i32 %30 to i64
  %32 = mul i64 4, %31
  %33 = call noalias ptr @malloc(i64 noundef %32) #12
  %34 = load ptr, ptr %9, align 8, !tbaa !32
  %35 = getelementptr inbounds nuw %struct.Cnf_Dat_t_, ptr %34, i32 0, i32 4
  %36 = load ptr, ptr %35, align 8, !tbaa !59
  %37 = getelementptr inbounds ptr, ptr %36, i64 0
  store ptr %33, ptr %37, align 8, !tbaa !18
  %38 = load ptr, ptr %9, align 8, !tbaa !32
  %39 = getelementptr inbounds nuw %struct.Cnf_Dat_t_, ptr %38, i32 0, i32 4
  %40 = load ptr, ptr %39, align 8, !tbaa !59
  %41 = getelementptr inbounds ptr, ptr %40, i64 0
  %42 = load ptr, ptr %41, align 8, !tbaa !18
  %43 = load i32, ptr %8, align 4, !tbaa !20
  %44 = sext i32 %43 to i64
  %45 = getelementptr inbounds i32, ptr %42, i64 %44
  %46 = load ptr, ptr %9, align 8, !tbaa !32
  %47 = getelementptr inbounds nuw %struct.Cnf_Dat_t_, ptr %46, i32 0, i32 4
  %48 = load ptr, ptr %47, align 8, !tbaa !59
  %49 = load i32, ptr %7, align 4, !tbaa !20
  %50 = sext i32 %49 to i64
  %51 = getelementptr inbounds ptr, ptr %48, i64 %50
  store ptr %45, ptr %51, align 8, !tbaa !18
  %52 = load ptr, ptr %9, align 8, !tbaa !32
  %53 = getelementptr inbounds nuw %struct.Cnf_Dat_t_, ptr %52, i32 0, i32 5
  %54 = load ptr, ptr %53, align 8, !tbaa !45
  %55 = icmp ne ptr %54, null
  br i1 %55, label %56, label %68

56:                                               ; preds = %4
  %57 = load ptr, ptr %5, align 8, !tbaa !34
  %58 = call i32 @Aig_ManObjNumMax(ptr noundef %57)
  %59 = sext i32 %58 to i64
  %60 = mul i64 4, %59
  %61 = call noalias ptr @malloc(i64 noundef %60) #12
  %62 = load ptr, ptr %5, align 8, !tbaa !34
  %63 = call i32 @Aig_ManObjNumMax(ptr noundef %62)
  %64 = sext i32 %63 to i64
  %65 = mul i64 4, %64
  call void @llvm.memset.p0.i64(ptr align 1 %61, i8 -1, i64 %65, i1 false)
  %66 = load ptr, ptr %9, align 8, !tbaa !32
  %67 = getelementptr inbounds nuw %struct.Cnf_Dat_t_, ptr %66, i32 0, i32 5
  store ptr %61, ptr %67, align 8, !tbaa !45
  br label %68

68:                                               ; preds = %56, %4
  %69 = load ptr, ptr %9, align 8, !tbaa !32
  call void @llvm.lifetime.end.p0(i64 8, ptr %9) #11
  ret ptr %69
}

; Function Attrs: inlinehint nounwind uwtable
define internal i32 @Vec_IntSize(ptr noundef %0) #5 {
  %2 = alloca ptr, align 8
  store ptr %0, ptr %2, align 8, !tbaa !24
  %3 = load ptr, ptr %2, align 8, !tbaa !24
  %4 = getelementptr inbounds nuw %struct.Vec_Int_t_, ptr %3, i32 0, i32 1
  %5 = load i32, ptr %4, align 4, !tbaa !25
  ret i32 %5
}

; Function Attrs: nounwind uwtable
define ptr @Cnf_DataDupCofArray(ptr noundef %0, ptr noundef %1) #0 {
  %3 = alloca ptr, align 8
  %4 = alloca ptr, align 8
  %5 = alloca ptr, align 8
  %6 = alloca i32, align 4
  %7 = alloca i32, align 4
  store ptr %0, ptr %3, align 8, !tbaa !32
  store ptr %1, ptr %4, align 8, !tbaa !24
  call void @llvm.lifetime.start.p0(i64 8, ptr %5) #11
  call void @llvm.lifetime.start.p0(i64 4, ptr %6) #11
  call void @llvm.lifetime.start.p0(i64 4, ptr %7) #11
  %8 = load ptr, ptr %3, align 8, !tbaa !32
  %9 = getelementptr inbounds nuw %struct.Cnf_Dat_t_, ptr %8, i32 0, i32 0
  %10 = load ptr, ptr %9, align 8, !tbaa !55
  %11 = load ptr, ptr %3, align 8, !tbaa !32
  %12 = getelementptr inbounds nuw %struct.Cnf_Dat_t_, ptr %11, i32 0, i32 1
  %13 = load i32, ptr %12, align 8, !tbaa !56
  %14 = load ptr, ptr %3, align 8, !tbaa !32
  %15 = getelementptr inbounds nuw %struct.Cnf_Dat_t_, ptr %14, i32 0, i32 3
  %16 = load i32, ptr %15, align 8, !tbaa !57
  %17 = load ptr, ptr %4, align 8, !tbaa !24
  %18 = call i32 @Vec_IntSize(ptr noundef %17)
  %19 = add nsw i32 %16, %18
  %20 = load ptr, ptr %3, align 8, !tbaa !32
  %21 = getelementptr inbounds nuw %struct.Cnf_Dat_t_, ptr %20, i32 0, i32 2
  %22 = load i32, ptr %21, align 4, !tbaa !58
  %23 = load ptr, ptr %4, align 8, !tbaa !24
  %24 = call i32 @Vec_IntSize(ptr noundef %23)
  %25 = add nsw i32 %22, %24
  %26 = call ptr @Cnf_DataAlloc(ptr noundef %10, i32 noundef %13, i32 noundef %19, i32 noundef %25)
  store ptr %26, ptr %5, align 8, !tbaa !32
  %27 = load ptr, ptr %5, align 8, !tbaa !32
  %28 = getelementptr inbounds nuw %struct.Cnf_Dat_t_, ptr %27, i32 0, i32 4
  %29 = load ptr, ptr %28, align 8, !tbaa !59
  %30 = getelementptr inbounds ptr, ptr %29, i64 0
  %31 = load ptr, ptr %30, align 8, !tbaa !18
  %32 = load ptr, ptr %3, align 8, !tbaa !32
  %33 = getelementptr inbounds nuw %struct.Cnf_Dat_t_, ptr %32, i32 0, i32 4
  %34 = load ptr, ptr %33, align 8, !tbaa !59
  %35 = getelementptr inbounds ptr, ptr %34, i64 0
  %36 = load ptr, ptr %35, align 8, !tbaa !18
  %37 = load ptr, ptr %3, align 8, !tbaa !32
  %38 = getelementptr inbounds nuw %struct.Cnf_Dat_t_, ptr %37, i32 0, i32 2
  %39 = load i32, ptr %38, align 4, !tbaa !58
  %40 = sext i32 %39 to i64
  %41 = mul i64 4, %40
  call void @llvm.memcpy.p0.p0.i64(ptr align 4 %31, ptr align 4 %36, i64 %41, i1 false)
  %42 = load ptr, ptr %5, align 8, !tbaa !32
  %43 = getelementptr inbounds nuw %struct.Cnf_Dat_t_, ptr %42, i32 0, i32 5
  %44 = load ptr, ptr %43, align 8, !tbaa !45
  %45 = icmp ne ptr %44, null
  br i1 %45, label %46, label %59

46:                                               ; preds = %2
  %47 = load ptr, ptr %5, align 8, !tbaa !32
  %48 = getelementptr inbounds nuw %struct.Cnf_Dat_t_, ptr %47, i32 0, i32 5
  %49 = load ptr, ptr %48, align 8, !tbaa !45
  %50 = load ptr, ptr %3, align 8, !tbaa !32
  %51 = getelementptr inbounds nuw %struct.Cnf_Dat_t_, ptr %50, i32 0, i32 5
  %52 = load ptr, ptr %51, align 8, !tbaa !45
  %53 = load ptr, ptr %3, align 8, !tbaa !32
  %54 = getelementptr inbounds nuw %struct.Cnf_Dat_t_, ptr %53, i32 0, i32 0
  %55 = load ptr, ptr %54, align 8, !tbaa !55
  %56 = call i32 @Aig_ManObjNumMax(ptr noundef %55)
  %57 = sext i32 %56 to i64
  %58 = mul i64 4, %57
  call void @llvm.memcpy.p0.p0.i64(ptr align 4 %49, ptr align 4 %52, i64 %58, i1 false)
  br label %59

59:                                               ; preds = %46, %2
  store i32 1, ptr %6, align 4, !tbaa !20
  br label %60

60:                                               ; preds = %95, %59
  %61 = load i32, ptr %6, align 4, !tbaa !20
  %62 = load ptr, ptr %3, align 8, !tbaa !32
  %63 = getelementptr inbounds nuw %struct.Cnf_Dat_t_, ptr %62, i32 0, i32 3
  %64 = load i32, ptr %63, align 8, !tbaa !57
  %65 = icmp slt i32 %61, %64
  br i1 %65, label %66, label %98

66:                                               ; preds = %60
  %67 = load ptr, ptr %5, align 8, !tbaa !32
  %68 = getelementptr inbounds nuw %struct.Cnf_Dat_t_, ptr %67, i32 0, i32 4
  %69 = load ptr, ptr %68, align 8, !tbaa !59
  %70 = getelementptr inbounds ptr, ptr %69, i64 0
  %71 = load ptr, ptr %70, align 8, !tbaa !18
  %72 = load ptr, ptr %3, align 8, !tbaa !32
  %73 = getelementptr inbounds nuw %struct.Cnf_Dat_t_, ptr %72, i32 0, i32 4
  %74 = load ptr, ptr %73, align 8, !tbaa !59
  %75 = load i32, ptr %6, align 4, !tbaa !20
  %76 = sext i32 %75 to i64
  %77 = getelementptr inbounds ptr, ptr %74, i64 %76
  %78 = load ptr, ptr %77, align 8, !tbaa !18
  %79 = load ptr, ptr %3, align 8, !tbaa !32
  %80 = getelementptr inbounds nuw %struct.Cnf_Dat_t_, ptr %79, i32 0, i32 4
  %81 = load ptr, ptr %80, align 8, !tbaa !59
  %82 = getelementptr inbounds ptr, ptr %81, i64 0
  %83 = load ptr, ptr %82, align 8, !tbaa !18
  %84 = ptrtoint ptr %78 to i64
  %85 = ptrtoint ptr %83 to i64
  %86 = sub i64 %84, %85
  %87 = sdiv exact i64 %86, 4
  %88 = getelementptr inbounds i32, ptr %71, i64 %87
  %89 = load ptr, ptr %5, align 8, !tbaa !32
  %90 = getelementptr inbounds nuw %struct.Cnf_Dat_t_, ptr %89, i32 0, i32 4
  %91 = load ptr, ptr %90, align 8, !tbaa !59
  %92 = load i32, ptr %6, align 4, !tbaa !20
  %93 = sext i32 %92 to i64
  %94 = getelementptr inbounds ptr, ptr %91, i64 %93
  store ptr %88, ptr %94, align 8, !tbaa !18
  br label %95

95:                                               ; preds = %66
  %96 = load i32, ptr %6, align 4, !tbaa !20
  %97 = add nsw i32 %96, 1
  store i32 %97, ptr %6, align 4, !tbaa !20
  br label %60, !llvm.loop !63

98:                                               ; preds = %60
  store i32 0, ptr %6, align 4, !tbaa !20
  br label %99

99:                                               ; preds = %147, %98
  %100 = load i32, ptr %6, align 4, !tbaa !20
  %101 = load ptr, ptr %4, align 8, !tbaa !24
  %102 = call i32 @Vec_IntSize(ptr noundef %101)
  %103 = icmp slt i32 %100, %102
  br i1 %103, label %104, label %108

104:                                              ; preds = %99
  %105 = load ptr, ptr %4, align 8, !tbaa !24
  %106 = load i32, ptr %6, align 4, !tbaa !20
  %107 = call i32 @Vec_IntEntry(ptr noundef %105, i32 noundef %106)
  store i32 %107, ptr %7, align 4, !tbaa !20
  br label %108

108:                                              ; preds = %104, %99
  %109 = phi i1 [ false, %99 ], [ true, %104 ]
  br i1 %109, label %110, label %150

110:                                              ; preds = %108
  %111 = load ptr, ptr %5, align 8, !tbaa !32
  %112 = getelementptr inbounds nuw %struct.Cnf_Dat_t_, ptr %111, i32 0, i32 4
  %113 = load ptr, ptr %112, align 8, !tbaa !59
  %114 = getelementptr inbounds ptr, ptr %113, i64 0
  %115 = load ptr, ptr %114, align 8, !tbaa !18
  %116 = load ptr, ptr %3, align 8, !tbaa !32
  %117 = getelementptr inbounds nuw %struct.Cnf_Dat_t_, ptr %116, i32 0, i32 2
  %118 = load i32, ptr %117, align 4, !tbaa !58
  %119 = sext i32 %118 to i64
  %120 = getelementptr inbounds i32, ptr %115, i64 %119
  %121 = load i32, ptr %6, align 4, !tbaa !20
  %122 = sext i32 %121 to i64
  %123 = getelementptr inbounds i32, ptr %120, i64 %122
  %124 = load ptr, ptr %5, align 8, !tbaa !32
  %125 = getelementptr inbounds nuw %struct.Cnf_Dat_t_, ptr %124, i32 0, i32 4
  %126 = load ptr, ptr %125, align 8, !tbaa !59
  %127 = load ptr, ptr %3, align 8, !tbaa !32
  %128 = getelementptr inbounds nuw %struct.Cnf_Dat_t_, ptr %127, i32 0, i32 3
  %129 = load i32, ptr %128, align 8, !tbaa !57
  %130 = load i32, ptr %6, align 4, !tbaa !20
  %131 = add nsw i32 %129, %130
  %132 = sext i32 %131 to i64
  %133 = getelementptr inbounds ptr, ptr %126, i64 %132
  store ptr %123, ptr %133, align 8, !tbaa !18
  %134 = load i32, ptr %7, align 4, !tbaa !20
  %135 = load ptr, ptr %5, align 8, !tbaa !32
  %136 = getelementptr inbounds nuw %struct.Cnf_Dat_t_, ptr %135, i32 0, i32 4
  %137 = load ptr, ptr %136, align 8, !tbaa !59
  %138 = load ptr, ptr %3, align 8, !tbaa !32
  %139 = getelementptr inbounds nuw %struct.Cnf_Dat_t_, ptr %138, i32 0, i32 3
  %140 = load i32, ptr %139, align 8, !tbaa !57
  %141 = load i32, ptr %6, align 4, !tbaa !20
  %142 = add nsw i32 %140, %141
  %143 = sext i32 %142 to i64
  %144 = getelementptr inbounds ptr, ptr %137, i64 %143
  %145 = load ptr, ptr %144, align 8, !tbaa !18
  %146 = getelementptr inbounds i32, ptr %145, i64 0
  store i32 %134, ptr %146, align 4, !tbaa !20
  br label %147

147:                                              ; preds = %110
  %148 = load i32, ptr %6, align 4, !tbaa !20
  %149 = add nsw i32 %148, 1
  store i32 %149, ptr %6, align 4, !tbaa !20
  br label %99, !llvm.loop !64

150:                                              ; preds = %108
  %151 = load ptr, ptr %5, align 8, !tbaa !32
  call void @llvm.lifetime.end.p0(i64 4, ptr %7) #11
  call void @llvm.lifetime.end.p0(i64 4, ptr %6) #11
  call void @llvm.lifetime.end.p0(i64 8, ptr %5) #11
  ret ptr %151
}