; Function Attrs: nofree nounwind uwtable
define noalias noundef ptr @Cnf_DataDupCofArray(ptr noundef readonly captures(none) %0, ptr noundef readonly captures(none) %1) local_unnamed_addr #7 {
  %3 = load ptr, ptr %0, align 8, !tbaa !47
  %4 = getelementptr inbounds nuw i8, ptr %0, i64 8
  %5 = load i32, ptr %4, align 8, !tbaa !48
  %6 = getelementptr inbounds nuw i8, ptr %0, i64 16
  %7 = load i32, ptr %6, align 8, !tbaa !49
  %8 = getelementptr i8, ptr %1, i64 4
  %.val38 = load i32, ptr %8, align 4, !tbaa !20
  %9 = add nsw i32 %.val38, %7
  %10 = getelementptr inbounds nuw i8, ptr %0, i64 12
  %11 = load i32, ptr %10, align 4, !tbaa !50
  %12 = add nsw i32 %11, %.val38
  %13 = tail call noalias dereferenceable_or_null(72) ptr @calloc(i64 noundef 1, i64 noundef 72) #19
  store ptr %3, ptr %13, align 8, !tbaa !47
  %14 = getelementptr inbounds nuw i8, ptr %13, i64 8
  store i32 %5, ptr %14, align 8, !tbaa !48
  %15 = getelementptr inbounds nuw i8, ptr %13, i64 16
  store i32 %9, ptr %15, align 8, !tbaa !49
  %16 = getelementptr inbounds nuw i8, ptr %13, i64 12
  store i32 %12, ptr %16, align 4, !tbaa !50
  %17 = add nsw i32 %9, 1
  %18 = sext i32 %17 to i64
  %19 = shl nsw i64 %18, 3
  %20 = tail call noalias ptr @malloc(i64 noundef %19) #17
  %21 = getelementptr inbounds nuw i8, ptr %13, i64 24
  store ptr %20, ptr %21, align 8, !tbaa !51
  %22 = sext i32 %12 to i64
  %23 = shl nsw i64 %22, 2
  %24 = tail call noalias ptr @malloc(i64 noundef %23) #17
  store ptr %24, ptr %20, align 8, !tbaa !16
  %25 = getelementptr inbounds i32, ptr %24, i64 %22
  %26 = sext i32 %9 to i64
  %27 = getelementptr inbounds ptr, ptr %20, i64 %26
  store ptr %25, ptr %27, align 8, !tbaa !16
  %28 = load ptr, ptr %20, align 8, !tbaa !16
  %29 = getelementptr inbounds nuw i8, ptr %0, i64 24
  %30 = load ptr, ptr %29, align 8, !tbaa !51
  %31 = load ptr, ptr %30, align 8, !tbaa !16
  %32 = sext i32 %11 to i64
  %33 = shl nsw i64 %32, 2
  tail call void @llvm.memcpy.p0.p0.i64(ptr align 4 %28, ptr align 4 %31, i64 %33, i1 false)
  %34 = load i32, ptr %6, align 8, !tbaa !49
  %35 = icmp sgt i32 %34, 1
  br i1 %35, label %.lr.ph, label %.preheader

.lr.ph:                                           ; preds = %2
  %36 = load ptr, ptr %20, align 8, !tbaa !16
  %37 = load ptr, ptr %29, align 8, !tbaa !51
  %wide.trip.count = zext nneg i32 %34 to i64
  br label %40

.preheader:                                       ; preds = %40, %2
  %.val4043 = load i32, ptr %8, align 4, !tbaa !20
  %38 = icmp sgt i32 %.val4043, 0
  br i1 %38, label %.lr.ph45, label %.critedge

.lr.ph45:                                         ; preds = %.preheader
  %39 = getelementptr i8, ptr %1, i64 8
  %.val41 = load ptr, ptr %39, align 8, !tbaa !23
  br label %49

40:                                               ; preds = %.lr.ph, %40
  %indvars.iv = phi i64 [ 1, %.lr.ph ], [ %indvars.iv.next, %40 ]
  %41 = getelementptr inbounds nuw ptr, ptr %37, i64 %indvars.iv
  %42 = load ptr, ptr %41, align 8, !tbaa !16
  %43 = load ptr, ptr %37, align 8, !tbaa !16
  %44 = ptrtoint ptr %42 to i64
  %45 = ptrtoint ptr %43 to i64
  %46 = sub i64 %44, %45
  %47 = getelementptr inbounds i8, ptr %36, i64 %46
  %48 = getelementptr inbounds nuw ptr, ptr %20, i64 %indvars.iv
  store ptr %47, ptr %48, align 8, !tbaa !16
  %indvars.iv.next = add nuw nsw i64 %indvars.iv, 1
  %exitcond.not = icmp eq i64 %indvars.iv.next, %wide.trip.count
  br i1 %exitcond.not, label %.preheader, label %40, !llvm.loop !55

49:                                               ; preds = %.lr.ph45, %49
  %indvars.iv47 = phi i64 [ 0, %.lr.ph45 ], [ %indvars.iv.next48, %49 ]
  %50 = getelementptr inbounds nuw i32, ptr %.val41, i64 %indvars.iv47
  %51 = load i32, ptr %50, align 4, !tbaa !28
  %52 = load ptr, ptr %20, align 8, !tbaa !16
  %53 = load i32, ptr %10, align 4, !tbaa !50
  %54 = sext i32 %53 to i64
  %55 = getelementptr inbounds i32, ptr %52, i64 %54
  %56 = getelementptr inbounds nuw i32, ptr %55, i64 %indvars.iv47
  %57 = load i32, ptr %6, align 8, !tbaa !49
  %58 = trunc nuw nsw i64 %indvars.iv47 to i32
  %59 = add nsw i32 %57, %58
  %60 = sext i32 %59 to i64
  %61 = getelementptr inbounds ptr, ptr %20, i64 %60
  store ptr %56, ptr %61, align 8, !tbaa !16
  store i32 %51, ptr %56, align 4, !tbaa !28
  %indvars.iv.next48 = add nuw nsw i64 %indvars.iv47, 1
  %.val40 = load i32, ptr %8, align 4, !tbaa !20
  %62 = sext i32 %.val40 to i64
  %63 = icmp slt i64 %indvars.iv.next48, %62
  br i1 %63, label %49, label %.critedge, !llvm.loop !56

.critedge:                                        ; preds = %49, %.preheader
  ret ptr %13
}